target datalayout = "e-m:e-p270:32:32-p271:32:32-p272:64:64-i64:64-i128:128-f80:128-n8:16:32:64-S128"
target triple = "x86_64-pc-linux-gnu"

%"class.icu_77::Edits" = type <{ ptr, i32, i32, i32, i32, i32, [100 x i16], [4 x i8] }>

; Function Attrs: mustprogress nounwind uwtable
define void @_ZN6icu_775Edits12releaseArrayEv(ptr noundef nonnull align 8 dereferenceable(232) %0) #0 align 2 personality ptr @__gxx_personality_v0 {
  %2 = alloca ptr, align 8
  store ptr %0, ptr %2, align 8, !tbaa !23
  %3 = load ptr, ptr %2, align 8
  %4 = getelementptr inbounds nuw %"class.icu_77::Edits", ptr %3, i32 0, i32 0
  %5 = load ptr, ptr %4, align 8, !tbaa !25
  %6 = getelementptr inbounds nuw %"class.icu_77::Edits", ptr %3, i32 0, i32 6
  %7 = getelementptr inbounds [100 x i16], ptr %6, i64 0, i64 0
  %8 = icmp ne ptr %5, %7
  br i1 %8, label %9, label %13

9:                                                ; preds = %1
  %10 = getelementptr inbounds nuw %"class.icu_77::Edits", ptr %3, i32 0, i32 0
  %11 = load ptr, ptr %10, align 8, !tbaa !25
  invoke void @uprv_free_77(ptr noundef %11)
          to label %12 unwind label %14

12:                                               ; preds = %9
  br label %13

13:                                               ; preds = %12, %1
  ret void

14:                                               ; preds = %9
  %15 = landingpad { ptr, i32 }
          catch ptr null
  %16 = extractvalue { ptr, i32 } %15, 0
  call void @__clang_call_terminate(ptr %16) #11
  unreachable
}

; Function Attrs: mustprogress uwtable
define noundef signext i8 @_ZN6icu_775Edits9growArrayEv(ptr noundef nonnull align 8 dereferenceable(232) %0) #1 align 2 {
  %2 = alloca i8, align 1
  %3 = alloca ptr, align 8
  %4 = alloca i32, align 4
  %5 = alloca i32, align 4
  %6 = alloca ptr, align 8
  store ptr %0, ptr %3, align 8, !tbaa !23
  %7 = load ptr, ptr %3, align 8
  call void @llvm.lifetime.start.p0(i64 4, ptr %4) #9
  %8 = getelementptr inbounds nuw %"class.icu_77::Edits", ptr %7, i32 0, i32 0
  %9 = load ptr, ptr %8, align 8, !tbaa !25
  %10 = getelementptr inbounds nuw %"class.icu_77::Edits", ptr %7, i32 0, i32 6
  %11 = getelementptr inbounds [100 x i16], ptr %10, i64 0, i64 0
  %12 = icmp eq ptr %9, %11
  br i1 %12, label %13, label %14

13:                                               ; preds = %1
  store i32 2000, ptr %4, align 4, !tbaa !14
  br label %31

14:                                               ; preds = %1
  %15 = getelementptr inbounds nuw %"class.icu_77::Edits", ptr %7, i32 0, i32 1
  %16 = load i32, ptr %15, align 8, !tbaa !32
  %17 = icmp eq i32 %16, 2147483647
  br i1 %17, label %18, label %20

18:                                               ; preds = %14
  %19 = getelementptr inbounds nuw %"class.icu_77::Edits", ptr %7, i32 0, i32 5
  store i32 8, ptr %19, align 8, !tbaa !28
  store i8 0, ptr %2, align 1
  store i32 1, ptr %5, align 4
  br label %64

20:                                               ; preds = %14
  %21 = getelementptr inbounds nuw %"class.icu_77::Edits", ptr %7, i32 0, i32 1
  %22 = load i32, ptr %21, align 8, !tbaa !32
  %23 = icmp sge i32 %22, 1073741823
  br i1 %23, label %24, label %25

24:                                               ; preds = %20
  store i32 2147483647, ptr %4, align 4, !tbaa !14
  br label %29

25:                                               ; preds = %20
  %26 = getelementptr inbounds nuw %"class.icu_77::Edits", ptr %7, i32 0, i32 1
  %27 = load i32, ptr %26, align 8, !tbaa !32
  %28 = mul nsw i32 2, %27
  store i32 %28, ptr %4, align 4, !tbaa !14
  br label %29

29:                                               ; preds = %25, %24
  br label %30

30:                                               ; preds = %29
  br label %31

31:                                               ; preds = %30, %13
  %32 = load i32, ptr %4, align 4, !tbaa !14
  %33 = getelementptr inbounds nuw %"class.icu_77::Edits", ptr %7, i32 0, i32 1
  %34 = load i32, ptr %33, align 8, !tbaa !32
  %35 = sub nsw i32 %32, %34
  %36 = icmp slt i32 %35, 5
  br i1 %36, label %37, label %39

37:                                               ; preds = %31
  %38 = getelementptr inbounds nuw %"class.icu_77::Edits", ptr %7, i32 0, i32 5
  store i32 8, ptr %38, align 8, !tbaa !28
  store i8 0, ptr %2, align 1
  store i32 1, ptr %5, align 4
  br label %64

39:                                               ; preds = %31
  call void @llvm.lifetime.start.p0(i64 8, ptr %6) #9
  %40 = load i32, ptr %4, align 4, !tbaa !14
  %41 = sext i32 %40 to i64
  %42 = mul i64 %41, 2
  %43 = call noalias ptr @uprv_malloc_77(i64 noundef %42) #10
  store ptr %43, ptr %6, align 8, !tbaa !33
  %44 = load ptr, ptr %6, align 8, !tbaa !33
  %45 = icmp eq ptr %44, null
  br i1 %45, label %46, label %48

46:                                               ; preds = %39
  %47 = getelementptr inbounds nuw %"class.icu_77::Edits", ptr %7, i32 0, i32 5
  store i32 7, ptr %47, align 8, !tbaa !28
  store i8 0, ptr %2, align 1
  store i32 1, ptr %5, align 4
  br label %63

48:                                               ; preds = %39
  br label %49

49:                                               ; preds = %48
  %50 = load ptr, ptr %6, align 8, !tbaa !33
  %51 = getelementptr inbounds nuw %"class.icu_77::Edits", ptr %7, i32 0, i32 0
  %52 = load ptr, ptr %51, align 8, !tbaa !25
  %53 = getelementptr inbounds nuw %"class.icu_77::Edits", ptr %7, i32 0, i32 2
  %54 = load i32, ptr %53, align 4, !tbaa !31
  %55 = sext i32 %54 to i64
  %56 = mul i64 %55, 2
  call void @llvm.memcpy.p0.p0.i64(ptr align 2 %50, ptr align 2 %52, i64 %56, i1 false)
  br label %57

57:                                               ; preds = %49
  br label %58

58:                                               ; preds = %57
  call void @_ZN6icu_775Edits12releaseArrayEv(ptr noundef nonnull align 8 dereferenceable(232) %7) #9
  %59 = load ptr, ptr %6, align 8, !tbaa !33
  %60 = getelementptr inbounds nuw %"class.icu_77::Edits", ptr %7, i32 0, i32 0
  store ptr %59, ptr %60, align 8, !tbaa !25
  %61 = load i32, ptr %4, align 4, !tbaa !14
  %62 = getelementptr inbounds nuw %"class.icu_77::Edits", ptr %7, i32 0, i32 1
  store i32 %61, ptr %62, align 8, !tbaa !32
  store i8 1, ptr %2, align 1
  store i32 1, ptr %5, align 4
  br label %63

63:                                               ; preds = %58, %46
  call void @llvm.lifetime.end.p0(i64 8, ptr %6) #9
  br label %64

64:                                               ; preds = %63, %37, %18
  call void @llvm.lifetime.end.p0(i64 4, ptr %4) #9
  %65 = load i8, ptr %2, align 1
  ret i8 %65
}