; Function Attrs: mustprogress uwtable
define noundef signext range(i8 0, 2) i8 @_ZN6icu_775Edits9growArrayEv(ptr noundef nonnull align 8 dereferenceable(232) %0) local_unnamed_addr #1 align 2 personality ptr @__gxx_personality_v0 {
  %2 = load ptr, ptr %0, align 8, !tbaa !15
  %3 = getelementptr inbounds nuw i8, ptr %0, i64 28
  %4 = icmp eq ptr %2, %3
  %.phi.trans.insert = getelementptr inbounds nuw i8, ptr %0, i64 8
  %.pre = load i32, ptr %.phi.trans.insert, align 8, !tbaa !22
  br i1 %4, label %._crit_edge, label %5

5:                                                ; preds = %1
  %6 = icmp eq i32 %.pre, 2147483647
  br i1 %6, label %7, label %9

7:                                                ; preds = %5
  %8 = getelementptr inbounds nuw i8, ptr %0, i64 24
  store i32 8, ptr %8, align 8, !tbaa !18
  br label %34

9:                                                ; preds = %5
  %10 = icmp sgt i32 %.pre, 1073741822
  %11 = shl nsw i32 %.pre, 1
  %spec.select = select i1 %10, i32 2147483647, i32 %11
  br label %._crit_edge

._crit_edge:                                      ; preds = %1, %9
  %.07 = phi i32 [ %spec.select, %9 ], [ 2000, %1 ]
  %12 = getelementptr inbounds nuw i8, ptr %0, i64 8
  %13 = sub nsw i32 %.07, %.pre
  %14 = icmp slt i32 %13, 5
  br i1 %14, label %15, label %17

15:                                               ; preds = %._crit_edge
  %16 = getelementptr inbounds nuw i8, ptr %0, i64 24
  store i32 8, ptr %16, align 8, !tbaa !18
  br label %34

17:                                               ; preds = %._crit_edge
  %18 = sext i32 %.07 to i64
  %19 = shl nsw i64 %18, 1
  %20 = tail call noalias ptr @uprv_malloc_77(i64 noundef %19) #17
  %21 = icmp eq ptr %20, null
  br i1 %21, label %22, label %24

22:                                               ; preds = %17
  %23 = getelementptr inbounds nuw i8, ptr %0, i64 24
  store i32 7, ptr %23, align 8, !tbaa !18
  br label %34

24:                                               ; preds = %17
  %25 = load ptr, ptr %0, align 8, !tbaa !15
  %26 = getelementptr inbounds nuw i8, ptr %0, i64 12
  %27 = load i32, ptr %26, align 4, !tbaa !21
  %28 = sext i32 %27 to i64
  %29 = shl nsw i64 %28, 1
  tail call void @llvm.memcpy.p0.p0.i64(ptr nonnull align 2 %20, ptr align 2 %25, i64 %29, i1 false)
  %.not.i = icmp eq ptr %25, %3
  br i1 %.not.i, label %_ZN6icu_775Edits12releaseArrayEv.exit, label %30

30:                                               ; preds = %24
  invoke void @uprv_free_77(ptr noundef %25)
          to label %_ZN6icu_775Edits12releaseArrayEv.exit unwind label %31

31:                                               ; preds = %30
  %32 = landingpad { ptr, i32 }
          catch ptr null
  %33 = extractvalue { ptr, i32 } %32, 0
  tail call void @__clang_call_terminate(ptr %33) #18
  unreachable

_ZN6icu_775Edits12releaseArrayEv.exit:            ; preds = %24, %30
  store ptr %20, ptr %0, align 8, !tbaa !15
  store i32 %.07, ptr %12, align 8, !tbaa !22
  br label %34

34:                                               ; preds = %22, %_ZN6icu_775Edits12releaseArrayEv.exit, %15, %7
  %.0 = phi i8 [ 0, %15 ], [ 0, %7 ], [ 0, %22 ], [ 1, %_ZN6icu_775Edits12releaseArrayEv.exit ]
  ret i8 %.0
}